(i__main__
Timbre
p0
(dp1
S'last_chain'
p2
S''
p3
sS'nom'
p4
S'Orgue-2021-08-10_01.instrument'
p5
sS'bat'
p6
(lp7
(lp8
I3
aI2
aI1
aI1
aI1
aa(lp9
I3
aI0
aI9
aI5
aI5
aa(lp10
I1
aI0
aI5
aI0
aI0
aasS'dimin'
p11
(I6
I1
tp12
sS'vol'
p13
I11
sS'det'
p14
(lp15
I1
aI4
aI9
aI8
aI10
asS'base'
p16
I220
sS'n_sons'
p17
I5
sS'amp'
p18
(lp19
I10
aI9
aI8
aI7
aI6
asb.